; Function Attrs: mustprogress nofree norecurse nosync nounwind null_pointer_is_valid sspstrong willreturn memory(none) uwtable
define internal range(i32 -9, 1) i32 @visual_dump_can_write_encap(i32 noundef %0) #4 {
  switch i32 %0, label %3 [
    i32 -1, label %4
    i32 1, label %2
    i32 2, label %2
    i32 12, label %2
    i32 40, label %2
    i32 27, label %2
    i32 4, label %2
    i32 19, label %2
  ]

2:                                                ; preds = %1, %1, %1, %1, %1, %1, %1
  br label %4

3:                                                ; preds = %1
  br label %4

4:                                                ; preds = %1, %3, %2
  %.0 = phi i32 [ -8, %3 ], [ 0, %2 ], [ -9, %1 ]
  ret i32 %.0
}